; Function Attrs: mustprogress uwtable
define hidden noundef double @_ZNK19OpenColorIO_v2_5dev29ExposureContrastTransformImpl11getContrastEv(ptr noundef nonnull readonly align 8 captures(none) dereferenceable(256) %0) unnamed_addr #0 align 2 {
  %2 = getelementptr inbounds nuw i8, ptr %0, i64 200
  %3 = load ptr, ptr %2, align 8, !tbaa !57
  %4 = load ptr, ptr %3, align 8, !tbaa !3
  %5 = getelementptr inbounds nuw i8, ptr %4, i64 24
  %6 = load ptr, ptr %5, align 8
  %7 = tail call noundef double %6(ptr noundef nonnull align 8 dereferenceable(32) %3)
  ret double %7
}